; Function Attrs: mustprogress uwtable
define void @_ZN7rocksdb29VersionEditHandlerPointInTimeC2EbSt6vectorINS_22ColumnFamilyDescriptorESaIS2_EEPNS_10VersionSetERKSt10shared_ptrINS_8IOTracerEERKNS_11ReadOptionsEbNS_22EpochNumberRequirementE(ptr noundef nonnull align 8 dereferenceable(1017) %0, i1 noundef zeroext %1, ptr noundef nonnull %2, ptr noundef %3, ptr noundef nonnull align 8 dereferenceable(16) %4, ptr noundef nonnull align 8 dereferenceable(168) %5, i1 noundef zeroext %6, i32 noundef %7) unnamed_addr #4 align 2 {
  tail call void @_ZN7rocksdb18VersionEditHandlerC2EbRKSt6vectorINS_22ColumnFamilyDescriptorESaIS2_EEPNS_10VersionSetEbbRKSt10shared_ptrINS_8IOTracerEERKNS_11ReadOptionsEbNS_22EpochNumberRequirementE(ptr noundef nonnull align 8 dereferenceable(896) %0, i1 noundef zeroext %1, ptr noundef nonnull align 8 dereferenceable(24) %2, ptr noundef %3, i1 noundef zeroext true, i1 noundef zeroext true, ptr noundef nonnull align 8 dereferenceable(16) %4, ptr noundef nonnull align 8 dereferenceable(168) %5, i1 noundef zeroext %6, i32 noundef %7)
  store ptr getelementptr inbounds nuw inrange(-16, 112) (i8, ptr @_ZTVN7rocksdb29VersionEditHandlerPointInTimeE, i64 16), ptr %0, align 8, !tbaa !22
  %9 = getelementptr inbounds nuw i8, ptr %0, i64 896
  %10 = getelementptr inbounds nuw i8, ptr %0, i64 944
  store ptr %10, ptr %9, align 8, !tbaa !635
  %11 = getelementptr inbounds nuw i8, ptr %0, i64 904
  store i64 1, ptr %11, align 8, !tbaa !637
  %12 = getelementptr inbounds nuw i8, ptr %0, i64 912
  %13 = getelementptr inbounds nuw i8, ptr %0, i64 928
  tail call void @llvm.memset.p0.i64(ptr noundef nonnull align 8 dereferenceable(16) %12, i8 0, i64 16, i1 false)
  store float 1.000000e+00, ptr %13, align 8, !tbaa !230
  %14 = getelementptr inbounds nuw i8, ptr %0, i64 936
  tail call void @llvm.memset.p0.i64(ptr noundef nonnull align 8 dereferenceable(16) %14, i8 0, i64 16, i1 false)
  %15 = getelementptr inbounds nuw i8, ptr %0, i64 952
  %16 = getelementptr inbounds nuw i8, ptr %0, i64 1000
  store ptr %16, ptr %15, align 8, !tbaa !635
  %17 = getelementptr inbounds nuw i8, ptr %0, i64 960
  store i64 1, ptr %17, align 8, !tbaa !637
  %18 = getelementptr inbounds nuw i8, ptr %0, i64 968
  %19 = getelementptr inbounds nuw i8, ptr %0, i64 984
  tail call void @llvm.memset.p0.i64(ptr noundef nonnull align 8 dereferenceable(16) %18, i8 0, i64 16, i1 false)
  store float 1.000000e+00, ptr %19, align 8, !tbaa !230
  %20 = getelementptr inbounds nuw i8, ptr %0, i64 992
  tail call void @llvm.memset.p0.i64(ptr noundef nonnull align 8 dereferenceable(16) %20, i8 0, i64 16, i1 false)
  %21 = getelementptr inbounds nuw i8, ptr %0, i64 1016
  store i8 0, ptr %21, align 8, !tbaa !638
  ret void
}